target datalayout = "e-m:e-p270:32:32-p271:32:32-p272:64:64-i64:64-i128:128-f80:128-n8:16:32:64-S128"
target triple = "x86_64-pc-linux-gnu"

@program_name = constant [8 x i8] c"ffprobe\00", align 1
@options = internal global ptr null, align 8
@.str = private unnamed_addr constant [14 x i8] c"Main options:\00", align 1
@.str.1 = private unnamed_addr constant [2 x i8] c"\0A\00", align 1
@.str.11 = private unnamed_addr constant [36 x i8] c"Simple multimedia streams analyzer\0A\00", align 1
@.str.12 = private unnamed_addr constant [32 x i8] c"usage: %s [OPTIONS] INPUT_FILE\0A\00", align 1

; Function Attrs: nounwind uwtable
define internal void @show_usage() #0 {
  call void (ptr, i32, ptr, ...) @av_log(ptr noundef null, i32 noundef 32, ptr noundef @.str.11)
  call void (ptr, i32, ptr, ...) @av_log(ptr noundef null, i32 noundef 32, ptr noundef @.str.12, ptr noundef @program_name)
  call void (ptr, i32, ptr, ...) @av_log(ptr noundef null, i32 noundef 32, ptr noundef @.str.1)
  ret void
}

; Function Attrs: nounwind uwtable
define void @show_help_default(ptr noundef %0, ptr noundef %1) #0 {
  %3 = alloca ptr, align 8
  %4 = alloca ptr, align 8
  store ptr %0, ptr %3, align 8, !tbaa !4
  store ptr %1, ptr %4, align 8, !tbaa !4
  call void @av_log_set_callback(ptr noundef @log_callback_help)
  call void @show_usage()
  %5 = load ptr, ptr @options, align 8, !tbaa !9
  call void @show_help_options(ptr noundef %5, ptr noundef @.str, i32 noundef 0, i32 noundef 0)
  %6 = call i32 (ptr, ...) @printf(ptr noundef @.str.1)
  %7 = call ptr @avformat_get_class()
  call void @show_help_children(ptr noundef %7, i32 noundef 2)
  %8 = call ptr @avcodec_get_class()
  call void @show_help_children(ptr noundef %8, i32 noundef 2)
  ret void
}