; Function Attrs: nounwind uwtable
define void @show_help_default(ptr noundef readnone captures(none) %0, ptr noundef readnone captures(none) %1) local_unnamed_addr #0 {
  tail call void @av_log_set_callback(ptr noundef nonnull @log_callback_help) #20
  tail call void (ptr, i32, ptr, ...) @av_log(ptr noundef null, i32 noundef 32, ptr noundef nonnull @.str.11) #20
  tail call void (ptr, i32, ptr, ...) @av_log(ptr noundef null, i32 noundef 32, ptr noundef nonnull @.str.12, ptr noundef nonnull @program_name) #20
  tail call void (ptr, i32, ptr, ...) @av_log(ptr noundef null, i32 noundef 32, ptr noundef nonnull @.str.1) #20
  %3 = load ptr, ptr @options, align 8, !tbaa !4
  tail call void @show_help_options(ptr noundef %3, ptr noundef nonnull @.str, i32 noundef 0, i32 noundef 0) #20
  %putchar = tail call i32 @putchar(i32 10)
  %4 = tail call ptr @avformat_get_class() #20
  tail call void @show_help_children(ptr noundef %4, i32 noundef 2) #20
  %5 = tail call ptr @avcodec_get_class() #20
  tail call void @show_help_children(ptr noundef %5, i32 noundef 2) #20
  ret void
}